
Amit_Project.elf:     file format elf32-avr

Sections:
Idx Name          Size      VMA       LMA       File off  Algn
  0 .text         000000b0  00000000  00000000  000000d4  2**1
                  CONTENTS, ALLOC, LOAD, READONLY, CODE
  1 .data         00000000  00800060  000000b0  000001a4  2**0
                  ALLOC
  2 .bss          00000021  00800060  00800060  000007d4  2**0
                  ALLOC
  3 .comment      0000002f  00000000  00000000  000007d4  2**0
                  CONTENTS, READONLY
  4 .debug_info   000004e6  00000000  00000000  00000803  2**0
                  CONTENTS, READONLY, DEBUGGING
  5 .debug_abbrev 000004a3  00000000  00000000  00000ce9  2**0
                  CONTENTS, READONLY, DEBUGGING
  6 .debug_line   00000119  00000000  00000000  0000118c  2**0
                  CONTENTS, READONLY, DEBUGGING
  7 .debug_str    00000196  00000000  00000000  000012a5  2**0
                  CONTENTS, READONLY, DEBUGGING
  8 .text         00000002  000006f4  000006f4  000007c8  2**1
                  CONTENTS, ALLOC, LOAD, READONLY, CODE
  9 .note.gnu.avr.deviceinfo 0000003c  00000000  00000000  0000143c  2**2
                  CONTENTS, READONLY, DEBUGGING
 10 .text.ADC_INITIAL 00000018  00000522  00000522  000005f6  2**1
                  CONTENTS, ALLOC, LOAD, READONLY, CODE
 11 .text.ADC_READ 00000012  0000038c  0000038c  00000460  2**1
                  CONTENTS, ALLOC, LOAD, READONLY, CODE
 12 .text.BUTTONS_INIT 0000001c  000004aa  000004aa  0000057e  2**1
                  CONTENTS, ALLOC, LOAD, READONLY, CODE
 13 .text.UP_PRESS 00000020  00000314  00000314  000003e8  2**1
                  CONTENTS, ALLOC, LOAD, READONLY, CODE
 14 .text.DOWN_PRESS 00000022  000002f2  000002f2  000003c6  2**1
                  CONTENTS, ALLOC, LOAD, READONLY, CODE
 15 .text.EEPROM_READ 0000000a  00000492  00000492  00000566  2**1
                  CONTENTS, ALLOC, LOAD, READONLY, CODE
 16 .text.EEPROM_WRITE 0000002a  00000252  00000252  00000326  2**1
                  CONTENTS, ALLOC, LOAD, READONLY, CODE
 17 .text.startup.main 00000020  000000b0  000000b0  00000184  2**1
                  CONTENTS, ALLOC, LOAD, READONLY, CODE
 18 .text.SSD_ENAB.part.0 00000006  00000560  00000560  00000634  2**1
                  CONTENTS, ALLOC, LOAD, READONLY, CODE
 19 .text.SSD_INITIAL 0000000e  0000049c  0000049c  00000570  2**1
                  CONTENTS, ALLOC, LOAD, READONLY, CODE
 20 .text.SSD_DISAB 00000006  00000386  00000386  0000045a  2**1
                  CONTENTS, ALLOC, LOAD, READONLY, CODE
 21 .text.SSD_OFF 00000004  00000334  00000334  00000408  2**1
                  CONTENTS, ALLOC, LOAD, READONLY, CODE
 22 .text.SSD_WRITE 00000076  0000027c  0000027c  00000350  2**1
                  CONTENTS, ALLOC, LOAD, READONLY, CODE
 23 .data.numbers 0000000a  00800081  000006f6  000007ca  2**0
                  CONTENTS, ALLOC, LOAD, DATA
 24 .text.OFF_STATE 00000022  00000142  00000142  00000216  2**1
                  CONTENTS, ALLOC, LOAD, READONLY, CODE
 25 .text.SET_STATE 00000072  000000d0  000000d0  000001a4  2**1
                  CONTENTS, ALLOC, LOAD, READONLY, CODE
 26 .text.CHAGE_TEMP 0000004e  00000338  00000338  0000040c  2**1
                  CONTENTS, ALLOC, LOAD, READONLY, CODE
 27 .text.ON_STATE 000000b0  00000164  00000164  00000238  2**1
                  CONTENTS, ALLOC, LOAD, READONLY, CODE
 28 .text.TEMP_INITIAL 0000005c  000004c6  000004c6  0000059a  2**1
                  CONTENTS, ALLOC, LOAD, READONLY, CODE
 29 .text.SYS_INITIAL 0000003e  00000214  00000214  000002e8  2**1
                  CONTENTS, ALLOC, LOAD, READONLY, CODE
 30 .text.avrlibc.fplib 00000058  0000041c  0000041c  000004f0  2**1
                  CONTENTS, ALLOC, LOAD, READONLY, CODE
 31 .text.avrlibc.fplib 0000007a  0000039e  0000039e  00000472  2**1
                  CONTENTS, ALLOC, LOAD, READONLY, CODE
 32 .text.avrlibc.fplib 00000044  0000065a  0000065a  0000072e  2**1
                  CONTENTS, ALLOC, LOAD, READONLY, CODE
 33 .text.avrlibc.fplib 0000000e  0000064c  0000064c  00000720  2**1
                  CONTENTS, ALLOC, LOAD, READONLY, CODE
 34 .text.avrlibc.fplib 00000004  00000418  00000418  000004ec  2**1
                  CONTENTS, ALLOC, LOAD, READONLY, CODE
 35 .text.avrlibc.fplib 000000c4  00000588  00000588  0000065c  2**1
                  CONTENTS, ALLOC, LOAD, READONLY, CODE
 36 .text.avrlibc.fplib 0000000c  000006c6  000006c6  0000079a  2**1
                  CONTENTS, ALLOC, LOAD, READONLY, CODE
 37 .text.avrlibc.fplib 00000006  000006d2  000006d2  000007a6  2**1
                  CONTENTS, ALLOC, LOAD, READONLY, CODE
 38 .text.avrlibc.fplib 0000000e  000006e6  000006e6  000007ba  2**1
                  CONTENTS, ALLOC, LOAD, READONLY, CODE
 39 .text.avrlibc.fplib 0000000e  000006d8  000006d8  000007ac  2**1
                  CONTENTS, ALLOC, LOAD, READONLY, CODE
 40 .text.avrlibc.fplib 00000022  00000566  00000566  0000063a  2**1
                  CONTENTS, ALLOC, LOAD, READONLY, CODE
 41 .text.libgcc.div 00000026  0000053a  0000053a  0000060e  2**1
                  CONTENTS, ALLOC, LOAD, READONLY, CODE
 42 .text.libgcc.mul 0000001e  00000474  00000474  00000548  2**1
                  CONTENTS, ALLOC, LOAD, READONLY, CODE
 43 .text.libgcc.div 00000028  0000069e  0000069e  00000772  2**1
                  CONTENTS, ALLOC, LOAD, READONLY, CODE

Disassembly of section .text:

00000000 <__vectors>:
   0:	2f c0       	rjmp	.+94     	; 0x60 <__ctors_end>
   2:	00 00       	nop
   4:	77 c3       	rjmp	.+1774   	; 0x6f4 <__bad_interrupt>
   6:	00 00       	nop
   8:	75 c3       	rjmp	.+1770   	; 0x6f4 <__bad_interrupt>
   a:	00 00       	nop
   c:	73 c3       	rjmp	.+1766   	; 0x6f4 <__bad_interrupt>
   e:	00 00       	nop
  10:	71 c3       	rjmp	.+1762   	; 0x6f4 <__bad_interrupt>
  12:	00 00       	nop
  14:	6f c3       	rjmp	.+1758   	; 0x6f4 <__bad_interrupt>
  16:	00 00       	nop
  18:	6d c3       	rjmp	.+1754   	; 0x6f4 <__bad_interrupt>
  1a:	00 00       	nop
  1c:	6b c3       	rjmp	.+1750   	; 0x6f4 <__bad_interrupt>
  1e:	00 00       	nop
  20:	69 c3       	rjmp	.+1746   	; 0x6f4 <__bad_interrupt>
  22:	00 00       	nop
  24:	67 c3       	rjmp	.+1742   	; 0x6f4 <__bad_interrupt>
  26:	00 00       	nop
  28:	65 c3       	rjmp	.+1738   	; 0x6f4 <__bad_interrupt>
  2a:	00 00       	nop
  2c:	63 c3       	rjmp	.+1734   	; 0x6f4 <__bad_interrupt>
  2e:	00 00       	nop
  30:	61 c3       	rjmp	.+1730   	; 0x6f4 <__bad_interrupt>
  32:	00 00       	nop
  34:	5f c3       	rjmp	.+1726   	; 0x6f4 <__bad_interrupt>
  36:	00 00       	nop
  38:	5d c3       	rjmp	.+1722   	; 0x6f4 <__bad_interrupt>
  3a:	00 00       	nop
  3c:	5b c3       	rjmp	.+1718   	; 0x6f4 <__bad_interrupt>
  3e:	00 00       	nop
  40:	59 c3       	rjmp	.+1714   	; 0x6f4 <__bad_interrupt>
  42:	00 00       	nop
  44:	57 c3       	rjmp	.+1710   	; 0x6f4 <__bad_interrupt>
  46:	00 00       	nop
  48:	55 c3       	rjmp	.+1706   	; 0x6f4 <__bad_interrupt>
  4a:	00 00       	nop
  4c:	53 c3       	rjmp	.+1702   	; 0x6f4 <__bad_interrupt>
  4e:	00 00       	nop
  50:	51 c3       	rjmp	.+1698   	; 0x6f4 <__bad_interrupt>
	...

00000054 <.dinit>:
  54:	00 60       	ori	r16, 0x00	; 0
  56:	00 81       	ld	r16, Z
  58:	80 00       	.word	0x0080	; ????
  5a:	81 00       	.word	0x0081	; ????
  5c:	8b 00       	.word	0x008b	; ????
  5e:	06 f6       	brtc	.-128    	; 0xffffffe0 <__eeprom_end+0xff7effe0>

00000060 <__ctors_end>:
  60:	11 24       	eor	r1, r1
  62:	1f be       	out	0x3f, r1	; 63
  64:	cf e5       	ldi	r28, 0x5F	; 95
  66:	d8 e0       	ldi	r29, 0x08	; 8
  68:	de bf       	out	0x3e, r29	; 62
  6a:	cd bf       	out	0x3d, r28	; 61

0000006c <__do_copy_data>:
  6c:	e4 e5       	ldi	r30, 0x54	; 84
  6e:	f0 e0       	ldi	r31, 0x00	; 0
  70:	40 e0       	ldi	r20, 0x00	; 0
  72:	17 c0       	rjmp	.+46     	; 0xa2 <__do_clear_bss+0x8>
  74:	b5 91       	lpm	r27, Z+
  76:	a5 91       	lpm	r26, Z+
  78:	35 91       	lpm	r19, Z+
  7a:	25 91       	lpm	r18, Z+
  7c:	05 91       	lpm	r16, Z+
  7e:	07 fd       	sbrc	r16, 7
  80:	0c c0       	rjmp	.+24     	; 0x9a <__do_clear_bss>
  82:	95 91       	lpm	r25, Z+
  84:	85 91       	lpm	r24, Z+
  86:	ef 01       	movw	r28, r30
  88:	f9 2f       	mov	r31, r25
  8a:	e8 2f       	mov	r30, r24
  8c:	05 90       	lpm	r0, Z+
  8e:	0d 92       	st	X+, r0
  90:	a2 17       	cp	r26, r18
  92:	b3 07       	cpc	r27, r19
  94:	d9 f7       	brne	.-10     	; 0x8c <__do_copy_data+0x20>
  96:	fe 01       	movw	r30, r28
  98:	04 c0       	rjmp	.+8      	; 0xa2 <__do_clear_bss+0x8>

0000009a <__do_clear_bss>:
  9a:	1d 92       	st	X+, r1
  9c:	a2 17       	cp	r26, r18
  9e:	b3 07       	cpc	r27, r19
  a0:	e1 f7       	brne	.-8      	; 0x9a <__do_clear_bss>
  a2:	e0 36       	cpi	r30, 0x60	; 96
  a4:	f4 07       	cpc	r31, r20
  a6:	31 f7       	brne	.-52     	; 0x74 <__do_copy_data+0x8>
  a8:	03 d0       	rcall	.+6      	; 0xb0 <_etext>
  aa:	00 c0       	rjmp	.+0      	; 0xac <_exit>

000000ac <_exit>:
  ac:	f8 94       	cli

000000ae <__stop_program>:
  ae:	ff cf       	rjmp	.-2      	; 0xae <__stop_program>

Disassembly of section .text:

000006f4 <__bad_interrupt>:
 6f4:	85 cc       	rjmp	.-1782   	; 0x0 <__TEXT_REGION_ORIGIN__>

Disassembly of section .text.ADC_INITIAL:

00000522 <ADC_INITIAL>:
 522:	3e 9a       	sbi	0x07, 6	; 7
 524:	38 98       	cbi	0x07, 0	; 7
 526:	39 98       	cbi	0x07, 1	; 7
 528:	3a 98       	cbi	0x07, 2	; 7
 52a:	3b 98       	cbi	0x07, 3	; 7
 52c:	3c 98       	cbi	0x07, 4	; 7
 52e:	3d 98       	cbi	0x07, 5	; 7
 530:	30 9a       	sbi	0x06, 0	; 6
 532:	31 98       	cbi	0x06, 1	; 6
 534:	32 98       	cbi	0x06, 2	; 6
 536:	37 9a       	sbi	0x06, 7	; 6
 538:	08 95       	ret

Disassembly of section .text.ADC_READ:

0000038c <ADC_READ>:
 38c:	36 9a       	sbi	0x06, 6	; 6
 38e:	30 9b       	sbis	0x06, 0	; 6
 390:	fe cf       	rjmp	.-4      	; 0x38e <ADC_READ+0x2>
 392:	84 b1       	in	r24, 0x04	; 4
 394:	25 b1       	in	r18, 0x05	; 5
 396:	34 9a       	sbi	0x06, 4	; 6
 398:	90 e0       	ldi	r25, 0x00	; 0
 39a:	92 2b       	or	r25, r18
 39c:	08 95       	ret

Disassembly of section .text.BUTTONS_INIT:

000004aa <BUTTONS_INIT>:
 4aa:	ba 98       	cbi	0x17, 2	; 23
 4ac:	b9 98       	cbi	0x17, 1	; 23
 4ae:	bb 98       	cbi	0x17, 3	; 23
 4b0:	c2 9a       	sbi	0x18, 2	; 24
 4b2:	c1 9a       	sbi	0x18, 1	; 24
 4b4:	c3 9a       	sbi	0x18, 3	; 24
 4b6:	78 94       	sei
 4b8:	84 b7       	in	r24, 0x34	; 52
 4ba:	80 64       	ori	r24, 0x40	; 64
 4bc:	84 bf       	out	0x34, r24	; 52
 4be:	8b b7       	in	r24, 0x3b	; 59
 4c0:	80 62       	ori	r24, 0x20	; 32
 4c2:	8b bf       	out	0x3b, r24	; 59
 4c4:	08 95       	ret

Disassembly of section .text.UP_PRESS:

00000314 <UP_PRESS>:
 314:	b1 9b       	sbis	0x16, 1	; 22
 316:	02 c0       	rjmp	.+4      	; 0x31c <UP_PRESS+0x8>
 318:	80 e0       	ldi	r24, 0x00	; 0
 31a:	08 95       	ret
 31c:	87 ea       	ldi	r24, 0xA7	; 167
 31e:	91 e6       	ldi	r25, 0x61	; 97
 320:	01 97       	sbiw	r24, 0x01	; 1
 322:	f1 f7       	brne	.-4      	; 0x320 <UP_PRESS+0xc>
 324:	00 c0       	rjmp	.+0      	; 0x326 <UP_PRESS+0x12>
 326:	00 00       	nop
 328:	86 b3       	in	r24, 0x16	; 22
 32a:	86 95       	lsr	r24
 32c:	81 70       	andi	r24, 0x01	; 1
 32e:	91 e0       	ldi	r25, 0x01	; 1
 330:	89 27       	eor	r24, r25
 332:	08 95       	ret

Disassembly of section .text.DOWN_PRESS:

000002f2 <DOWN_PRESS>:
 2f2:	b3 9b       	sbis	0x16, 3	; 22
 2f4:	02 c0       	rjmp	.+4      	; 0x2fa <DOWN_PRESS+0x8>
 2f6:	80 e0       	ldi	r24, 0x00	; 0
 2f8:	08 95       	ret
 2fa:	87 ea       	ldi	r24, 0xA7	; 167
 2fc:	91 e6       	ldi	r25, 0x61	; 97
 2fe:	01 97       	sbiw	r24, 0x01	; 1
 300:	f1 f7       	brne	.-4      	; 0x2fe <DOWN_PRESS+0xc>
 302:	00 c0       	rjmp	.+0      	; 0x304 <DOWN_PRESS+0x12>
 304:	00 00       	nop
 306:	86 b3       	in	r24, 0x16	; 22
 308:	83 fb       	bst	r24, 3
 30a:	99 27       	eor	r25, r25
 30c:	90 f9       	bld	r25, 0
 30e:	81 e0       	ldi	r24, 0x01	; 1
 310:	89 27       	eor	r24, r25
 312:	08 95       	ret

Disassembly of section .text.EEPROM_READ:

00000492 <EEPROM_READ>:
 492:	8e bb       	out	0x1e, r24	; 30
 494:	9f bb       	out	0x1f, r25	; 31
 496:	e0 9a       	sbi	0x1c, 0	; 28
 498:	8d b3       	in	r24, 0x1d	; 29
 49a:	08 95       	ret

Disassembly of section .text.EEPROM_WRITE:

00000252 <EEPROM_WRITE>:
 252:	8e bb       	out	0x1e, r24	; 30
 254:	9f bb       	out	0x1f, r25	; 31
 256:	6d bb       	out	0x1d, r22	; 29
 258:	0f b6       	in	r0, 0x3f	; 63
 25a:	07 fc       	sbrc	r0, 7
 25c:	0a c0       	rjmp	.+20     	; 0x272 <EEPROM_WRITE+0x20>
 25e:	80 e0       	ldi	r24, 0x00	; 0
 260:	e2 9a       	sbi	0x1c, 2	; 28
 262:	e1 9a       	sbi	0x1c, 1	; 28
 264:	e1 99       	sbic	0x1c, 1	; 28
 266:	fe cf       	rjmp	.-4      	; 0x264 <EEPROM_WRITE+0x12>
 268:	81 30       	cpi	r24, 0x01	; 1
 26a:	09 f0       	breq	.+2      	; 0x26e <EEPROM_WRITE+0x1c>
 26c:	08 95       	ret
 26e:	78 94       	sei
 270:	08 95       	ret
 272:	8f b7       	in	r24, 0x3f	; 63
 274:	8f 77       	andi	r24, 0x7F	; 127
 276:	8f bf       	out	0x3f, r24	; 63
 278:	81 e0       	ldi	r24, 0x01	; 1
 27a:	f2 cf       	rjmp	.-28     	; 0x260 <EEPROM_WRITE+0xe>

Disassembly of section .text.startup.main:

000000b0 <main>:
  b0:	b1 d0       	rcall	.+354    	; 0x214 <SYS_INITIAL>
  b2:	80 91 63 00 	lds	r24, 0x0063	; 0x800063 <Curr_state>
  b6:	81 30       	cpi	r24, 0x01	; 1
  b8:	49 f0       	breq	.+18     	; 0xcc <main+0x1c>
  ba:	30 f0       	brcs	.+12     	; 0xc8 <main+0x18>
  bc:	82 30       	cpi	r24, 0x02	; 2
  be:	09 f4       	brne	.+2      	; 0xc2 <main+0x12>
  c0:	07 d0       	rcall	.+14     	; 0xd0 <SET_STATE>
  c2:	80 e0       	ldi	r24, 0x00	; 0
  c4:	90 e0       	ldi	r25, 0x00	; 0
  c6:	08 95       	ret
  c8:	3c d0       	rcall	.+120    	; 0x142 <OFF_STATE>
  ca:	fb cf       	rjmp	.-10     	; 0xc2 <main+0x12>
  cc:	4b d0       	rcall	.+150    	; 0x164 <ON_STATE>
  ce:	f9 cf       	rjmp	.-14     	; 0xc2 <main+0x12>

Disassembly of section .text.SSD_ENAB.part.0:

00000560 <SSD_ENAB.part.0>:
 560:	c6 9a       	sbi	0x18, 6	; 24
 562:	c7 98       	cbi	0x18, 7	; 24
 564:	08 95       	ret

Disassembly of section .text.SSD_INITIAL:

0000049c <SSD_INITIAL>:
 49c:	8f ef       	ldi	r24, 0xFF	; 255
 49e:	81 bb       	out	0x11, r24	; 17
 4a0:	be 9a       	sbi	0x17, 6	; 23
 4a2:	bf 9a       	sbi	0x17, 7	; 23
 4a4:	c6 98       	cbi	0x18, 6	; 24
 4a6:	c7 98       	cbi	0x18, 7	; 24
 4a8:	08 95       	ret

Disassembly of section .text.SSD_DISAB:

00000386 <SSD_DISAB>:
 386:	c6 98       	cbi	0x18, 6	; 24
 388:	c7 98       	cbi	0x18, 7	; 24
 38a:	08 95       	ret

Disassembly of section .text.SSD_OFF:

00000334 <SSD_OFF>:
 334:	12 ba       	out	0x12, r1	; 18
 336:	08 95       	ret

Disassembly of section .text.SSD_WRITE:

0000027c <SSD_WRITE>:
 27c:	cf 93       	push	r28
 27e:	df 93       	push	r29
 280:	ec 01       	movw	r28, r24
 282:	6e d1       	rcall	.+732    	; 0x560 <SSD_ENAB.part.0>
 284:	9e 01       	movw	r18, r28
 286:	ad ec       	ldi	r26, 0xCD	; 205
 288:	bc ec       	ldi	r27, 0xCC	; 204
 28a:	f4 d0       	rcall	.+488    	; 0x474 <__umulhisi3>
 28c:	96 95       	lsr	r25
 28e:	87 95       	ror	r24
 290:	96 95       	lsr	r25
 292:	87 95       	ror	r24
 294:	96 95       	lsr	r25
 296:	87 95       	ror	r24
 298:	9c 01       	movw	r18, r24
 29a:	22 0f       	add	r18, r18
 29c:	33 1f       	adc	r19, r19
 29e:	88 0f       	add	r24, r24
 2a0:	99 1f       	adc	r25, r25
 2a2:	88 0f       	add	r24, r24
 2a4:	99 1f       	adc	r25, r25
 2a6:	88 0f       	add	r24, r24
 2a8:	99 1f       	adc	r25, r25
 2aa:	82 0f       	add	r24, r18
 2ac:	93 1f       	adc	r25, r19
 2ae:	fe 01       	movw	r30, r28
 2b0:	e8 1b       	sub	r30, r24
 2b2:	f9 0b       	sbc	r31, r25
 2b4:	ef 57       	subi	r30, 0x7F	; 127
 2b6:	ff 4f       	sbci	r31, 0xFF	; 255
 2b8:	80 81       	ld	r24, Z
 2ba:	82 bb       	out	0x12, r24	; 18
 2bc:	81 ee       	ldi	r24, 0xE1	; 225
 2be:	94 e0       	ldi	r25, 0x04	; 4
 2c0:	01 97       	sbiw	r24, 0x01	; 1
 2c2:	f1 f7       	brne	.-4      	; 0x2c0 <SSD_WRITE+0x44>
 2c4:	00 c0       	rjmp	.+0      	; 0x2c6 <SSD_WRITE+0x4a>
 2c6:	00 00       	nop
 2c8:	c7 9a       	sbi	0x18, 7	; 24
 2ca:	c6 98       	cbi	0x18, 6	; 24
 2cc:	ce 01       	movw	r24, r28
 2ce:	6a e0       	ldi	r22, 0x0A	; 10
 2d0:	70 e0       	ldi	r23, 0x00	; 0
 2d2:	33 d1       	rcall	.+614    	; 0x53a <__divmodhi4>
 2d4:	fb 01       	movw	r30, r22
 2d6:	ff 27       	eor	r31, r31
 2d8:	ef 57       	subi	r30, 0x7F	; 127
 2da:	ff 4f       	sbci	r31, 0xFF	; 255
 2dc:	80 81       	ld	r24, Z
 2de:	82 bb       	out	0x12, r24	; 18
 2e0:	81 ee       	ldi	r24, 0xE1	; 225
 2e2:	94 e0       	ldi	r25, 0x04	; 4
 2e4:	01 97       	sbiw	r24, 0x01	; 1
 2e6:	f1 f7       	brne	.-4      	; 0x2e4 <SSD_WRITE+0x68>
 2e8:	00 c0       	rjmp	.+0      	; 0x2ea <SSD_WRITE+0x6e>
 2ea:	00 00       	nop
 2ec:	df 91       	pop	r29
 2ee:	cf 91       	pop	r28
 2f0:	08 95       	ret

Disassembly of section .text.OFF_STATE:

00000142 <OFF_STATE>:
 142:	f8 d0       	rcall	.+496    	; 0x334 <SSD_OFF>
 144:	c0 98       	cbi	0x18, 0	; 24
 146:	c4 98       	cbi	0x18, 4	; 24
 148:	c5 98       	cbi	0x18, 5	; 24
 14a:	85 b7       	in	r24, 0x35	; 53
 14c:	8f 7e       	andi	r24, 0xEF	; 239
 14e:	85 bf       	out	0x35, r24	; 53
 150:	85 b7       	in	r24, 0x35	; 53
 152:	8f 7d       	andi	r24, 0xDF	; 223
 154:	85 bf       	out	0x35, r24	; 53
 156:	85 b7       	in	r24, 0x35	; 53
 158:	8f 7b       	andi	r24, 0xBF	; 191
 15a:	85 bf       	out	0x35, r24	; 53
 15c:	85 b7       	in	r24, 0x35	; 53
 15e:	80 68       	ori	r24, 0x80	; 128
 160:	85 bf       	out	0x35, r24	; 53
 162:	08 95       	ret

Disassembly of section .text.SET_STATE:

000000d0 <SET_STATE>:
  d0:	c0 98       	cbi	0x18, 0	; 24
  d2:	c4 98       	cbi	0x18, 4	; 24
  d4:	c5 98       	cbi	0x18, 5	; 24
  d6:	80 91 66 00 	lds	r24, 0x0066	; 0x800066 <toggle_f>
  da:	90 91 67 00 	lds	r25, 0x0067	; 0x800067 <toggle_f+0x1>
  de:	01 97       	sbiw	r24, 0x01	; 1
  e0:	51 f1       	breq	.+84     	; 0x136 <SET_STATE+0x66>
  e2:	28 d1       	rcall	.+592    	; 0x334 <SSD_OFF>
  e4:	17 d1       	rcall	.+558    	; 0x314 <UP_PRESS>
  e6:	81 30       	cpi	r24, 0x01	; 1
  e8:	51 f0       	breq	.+20     	; 0xfe <SET_STATE+0x2e>
  ea:	03 d1       	rcall	.+518    	; 0x2f2 <DOWN_PRESS>
  ec:	60 91 64 00 	lds	r22, 0x0064	; 0x800064 <desired_temp>
  f0:	70 91 65 00 	lds	r23, 0x0065	; 0x800065 <desired_temp+0x1>
  f4:	81 30       	cpi	r24, 0x01	; 1
  f6:	61 f0       	breq	.+24     	; 0x110 <SET_STATE+0x40>
  f8:	80 e0       	ldi	r24, 0x00	; 0
  fa:	90 e0       	ldi	r25, 0x00	; 0
  fc:	aa c0       	rjmp	.+340    	; 0x252 <EEPROM_WRITE>
  fe:	80 91 64 00 	lds	r24, 0x0064	; 0x800064 <desired_temp>
 102:	90 91 65 00 	lds	r25, 0x0065	; 0x800065 <desired_temp+0x1>
 106:	8b 34       	cpi	r24, 0x4B	; 75
 108:	91 05       	cpc	r25, r1
 10a:	78 f7       	brcc	.-34     	; 0xea <SET_STATE+0x1a>
 10c:	05 96       	adiw	r24, 0x05	; 5
 10e:	05 c0       	rjmp	.+10     	; 0x11a <SET_STATE+0x4a>
 110:	64 32       	cpi	r22, 0x24	; 36
 112:	71 05       	cpc	r23, r1
 114:	88 f3       	brcs	.-30     	; 0xf8 <SET_STATE+0x28>
 116:	cb 01       	movw	r24, r22
 118:	05 97       	sbiw	r24, 0x05	; 5
 11a:	90 93 65 00 	sts	0x0065, r25	; 0x800065 <desired_temp+0x1>
 11e:	80 93 64 00 	sts	0x0064, r24	; 0x800064 <desired_temp>
 122:	10 92 62 00 	sts	0x0062, r1	; 0x800062 <setting_counter>
 126:	aa d0       	rcall	.+340    	; 0x27c <SSD_WRITE>
 128:	60 91 64 00 	lds	r22, 0x0064	; 0x800064 <desired_temp>
 12c:	70 91 65 00 	lds	r23, 0x0065	; 0x800065 <desired_temp+0x1>
 130:	80 e0       	ldi	r24, 0x00	; 0
 132:	90 e0       	ldi	r25, 0x00	; 0
 134:	8e c0       	rjmp	.+284    	; 0x252 <EEPROM_WRITE>
 136:	80 91 64 00 	lds	r24, 0x0064	; 0x800064 <desired_temp>
 13a:	90 91 65 00 	lds	r25, 0x0065	; 0x800065 <desired_temp+0x1>
 13e:	9e d0       	rcall	.+316    	; 0x27c <SSD_WRITE>
 140:	d1 cf       	rjmp	.-94     	; 0xe4 <SET_STATE+0x14>

Disassembly of section .text.CHAGE_TEMP:

00000338 <CHAGE_TEMP>:
 338:	80 91 6a 00 	lds	r24, 0x006A	; 0x80006a <avg_temp>
 33c:	90 91 6b 00 	lds	r25, 0x006B	; 0x80006b <avg_temp+0x1>
 340:	20 91 64 00 	lds	r18, 0x0064	; 0x800064 <desired_temp>
 344:	30 91 65 00 	lds	r19, 0x0065	; 0x800065 <desired_temp+0x1>
 348:	ac 01       	movw	r20, r24
 34a:	4b 5f       	subi	r20, 0xFB	; 251
 34c:	5f 4f       	sbci	r21, 0xFF	; 255
 34e:	05 97       	sbiw	r24, 0x05	; 5
 350:	24 17       	cp	r18, r20
 352:	35 07       	cpc	r19, r21
 354:	38 f4       	brcc	.+14     	; 0x364 <CHAGE_TEMP+0x2c>
 356:	82 17       	cp	r24, r18
 358:	93 07       	cpc	r25, r19
 35a:	88 f0       	brcs	.+34     	; 0x37e <CHAGE_TEMP+0x46>
 35c:	c4 98       	cbi	0x18, 4	; 24
 35e:	c5 9a       	sbi	0x18, 5	; 24
 360:	c0 9a       	sbi	0x18, 0	; 24
 362:	08 95       	ret
 364:	82 17       	cp	r24, r18
 366:	93 07       	cpc	r25, r19
 368:	48 f4       	brcc	.+18     	; 0x37c <CHAGE_TEMP+0x44>
 36a:	c4 9a       	sbi	0x18, 4	; 24
 36c:	c5 98       	cbi	0x18, 5	; 24
 36e:	80 91 66 00 	lds	r24, 0x0066	; 0x800066 <toggle_f>
 372:	90 91 67 00 	lds	r25, 0x0067	; 0x800067 <toggle_f+0x1>
 376:	01 97       	sbiw	r24, 0x01	; 1
 378:	99 f3       	breq	.-26     	; 0x360 <CHAGE_TEMP+0x28>
 37a:	c0 98       	cbi	0x18, 0	; 24
 37c:	08 95       	ret
 37e:	c0 98       	cbi	0x18, 0	; 24
 380:	c4 98       	cbi	0x18, 4	; 24
 382:	c5 98       	cbi	0x18, 5	; 24
 384:	08 95       	ret

Disassembly of section .text.ON_STATE:

00000164 <ON_STATE>:
 164:	80 91 61 00 	lds	r24, 0x0061	; 0x800061 <temp_measure_f>
 168:	81 30       	cpi	r24, 0x01	; 1
 16a:	a9 f0       	breq	.+42     	; 0x196 <ON_STATE+0x32>
 16c:	40 91 68 00 	lds	r20, 0x0068	; 0x800068 <actual_temp>
 170:	50 91 69 00 	lds	r21, 0x0069	; 0x800069 <actual_temp+0x1>
 174:	ca 01       	movw	r24, r20
 176:	82 d0       	rcall	.+260    	; 0x27c <SSD_WRITE>
 178:	df d0       	rcall	.+446    	; 0x338 <CHAGE_TEMP>
 17a:	cc d0       	rcall	.+408    	; 0x314 <UP_PRESS>
 17c:	81 30       	cpi	r24, 0x01	; 1
 17e:	21 f0       	breq	.+8      	; 0x188 <ON_STATE+0x24>
 180:	b8 d0       	rcall	.+368    	; 0x2f2 <DOWN_PRESS>
 182:	81 30       	cpi	r24, 0x01	; 1
 184:	09 f0       	breq	.+2      	; 0x188 <ON_STATE+0x24>
 186:	08 95       	ret
 188:	fe d0       	rcall	.+508    	; 0x386 <SSD_DISAB>
 18a:	10 92 62 00 	sts	0x0062, r1	; 0x800062 <setting_counter>
 18e:	82 e0       	ldi	r24, 0x02	; 2
 190:	80 93 63 00 	sts	0x0063, r24	; 0x800063 <Curr_state>
 194:	08 95       	ret
 196:	fa d0       	rcall	.+500    	; 0x38c <ADC_READ>
 198:	bc 01       	movw	r22, r24
 19a:	80 e0       	ldi	r24, 0x00	; 0
 19c:	90 e0       	ldi	r25, 0x00	; 0
 19e:	ff d0       	rcall	.+510    	; 0x39e <__floatunsisf>
 1a0:	20 e0       	ldi	r18, 0x00	; 0
 1a2:	30 e0       	ldi	r19, 0x00	; 0
 1a4:	40 e0       	ldi	r20, 0x00	; 0
 1a6:	5f e3       	ldi	r21, 0x3F	; 63
 1a8:	37 d1       	rcall	.+622    	; 0x418 <__mulsf3>
 1aa:	38 d1       	rcall	.+624    	; 0x41c <__fixunssfsi>
 1ac:	ab 01       	movw	r20, r22
 1ae:	70 93 69 00 	sts	0x0069, r23	; 0x800069 <actual_temp+0x1>
 1b2:	60 93 68 00 	sts	0x0068, r22	; 0x800068 <actual_temp>
 1b6:	20 91 60 00 	lds	r18, 0x0060	; 0x800060 <__DATA_REGION_ORIGIN__>
 1ba:	e2 2f       	mov	r30, r18
 1bc:	f0 e0       	ldi	r31, 0x00	; 0
 1be:	ee 0f       	add	r30, r30
 1c0:	ff 1f       	adc	r31, r31
 1c2:	e3 59       	subi	r30, 0x93	; 147
 1c4:	ff 4f       	sbci	r31, 0xFF	; 255
 1c6:	71 83       	std	Z+1, r23	; 0x01
 1c8:	60 83       	st	Z, r22
 1ca:	81 e0       	ldi	r24, 0x01	; 1
 1cc:	82 0f       	add	r24, r18
 1ce:	8a 30       	cpi	r24, 0x0A	; 10
 1d0:	f1 f0       	breq	.+60     	; 0x20e <ON_STATE+0xaa>
 1d2:	80 93 60 00 	sts	0x0060, r24	; 0x800060 <__DATA_REGION_ORIGIN__>
 1d6:	ed e6       	ldi	r30, 0x6D	; 109
 1d8:	f0 e0       	ldi	r31, 0x00	; 0
 1da:	20 e0       	ldi	r18, 0x00	; 0
 1dc:	30 e0       	ldi	r19, 0x00	; 0
 1de:	81 91       	ld	r24, Z+
 1e0:	91 91       	ld	r25, Z+
 1e2:	28 0f       	add	r18, r24
 1e4:	39 1f       	adc	r19, r25
 1e6:	80 e0       	ldi	r24, 0x00	; 0
 1e8:	e1 38       	cpi	r30, 0x81	; 129
 1ea:	f8 07       	cpc	r31, r24
 1ec:	c1 f7       	brne	.-16     	; 0x1de <ON_STATE+0x7a>
 1ee:	ad ec       	ldi	r26, 0xCD	; 205
 1f0:	bc ec       	ldi	r27, 0xCC	; 204
 1f2:	40 d1       	rcall	.+640    	; 0x474 <__umulhisi3>
 1f4:	96 95       	lsr	r25
 1f6:	87 95       	ror	r24
 1f8:	96 95       	lsr	r25
 1fa:	87 95       	ror	r24
 1fc:	96 95       	lsr	r25
 1fe:	87 95       	ror	r24
 200:	90 93 6b 00 	sts	0x006B, r25	; 0x80006b <avg_temp+0x1>
 204:	80 93 6a 00 	sts	0x006A, r24	; 0x80006a <avg_temp>
 208:	10 92 61 00 	sts	0x0061, r1	; 0x800061 <temp_measure_f>
 20c:	b3 cf       	rjmp	.-154    	; 0x174 <ON_STATE+0x10>
 20e:	10 92 60 00 	sts	0x0060, r1	; 0x800060 <__DATA_REGION_ORIGIN__>
 212:	e1 cf       	rjmp	.-62     	; 0x1d6 <ON_STATE+0x72>

Disassembly of section .text.TEMP_INITIAL:

000004c6 <TEMP_INITIAL>:
 4c6:	62 df       	rcall	.-316    	; 0x38c <ADC_READ>
 4c8:	bc 01       	movw	r22, r24
 4ca:	80 e0       	ldi	r24, 0x00	; 0
 4cc:	90 e0       	ldi	r25, 0x00	; 0
 4ce:	67 df       	rcall	.-306    	; 0x39e <__floatunsisf>
 4d0:	20 e0       	ldi	r18, 0x00	; 0
 4d2:	30 e0       	ldi	r19, 0x00	; 0
 4d4:	40 e0       	ldi	r20, 0x00	; 0
 4d6:	5f e3       	ldi	r21, 0x3F	; 63
 4d8:	9f df       	rcall	.-194    	; 0x418 <__mulsf3>
 4da:	a0 df       	rcall	.-192    	; 0x41c <__fixunssfsi>
 4dc:	ed e6       	ldi	r30, 0x6D	; 109
 4de:	f0 e0       	ldi	r31, 0x00	; 0
 4e0:	df 01       	movw	r26, r30
 4e2:	6d 93       	st	X+, r22
 4e4:	7d 93       	st	X+, r23
 4e6:	80 e0       	ldi	r24, 0x00	; 0
 4e8:	a1 38       	cpi	r26, 0x81	; 129
 4ea:	b8 07       	cpc	r27, r24
 4ec:	d1 f7       	brne	.-12     	; 0x4e2 <TEMP_INITIAL+0x1c>
 4ee:	20 e0       	ldi	r18, 0x00	; 0
 4f0:	30 e0       	ldi	r19, 0x00	; 0
 4f2:	81 91       	ld	r24, Z+
 4f4:	91 91       	ld	r25, Z+
 4f6:	28 0f       	add	r18, r24
 4f8:	39 1f       	adc	r19, r25
 4fa:	80 e0       	ldi	r24, 0x00	; 0
 4fc:	e1 38       	cpi	r30, 0x81	; 129
 4fe:	f8 07       	cpc	r31, r24
 500:	c1 f7       	brne	.-16     	; 0x4f2 <TEMP_INITIAL+0x2c>
 502:	ad ec       	ldi	r26, 0xCD	; 205
 504:	bc ec       	ldi	r27, 0xCC	; 204
 506:	b6 df       	rcall	.-148    	; 0x474 <__umulhisi3>
 508:	96 95       	lsr	r25
 50a:	87 95       	ror	r24
 50c:	96 95       	lsr	r25
 50e:	87 95       	ror	r24
 510:	96 95       	lsr	r25
 512:	87 95       	ror	r24
 514:	90 93 6b 00 	sts	0x006B, r25	; 0x80006b <avg_temp+0x1>
 518:	80 93 6a 00 	sts	0x006A, r24	; 0x80006a <avg_temp>
 51c:	10 92 60 00 	sts	0x0060, r1	; 0x800060 <__DATA_REGION_ORIGIN__>
 520:	08 95       	ret

Disassembly of section .text.SYS_INITIAL:

00000214 <SYS_INITIAL>:
 214:	86 d1       	rcall	.+780    	; 0x522 <ADC_INITIAL>
 216:	49 d1       	rcall	.+658    	; 0x4aa <BUTTONS_INIT>
 218:	41 d1       	rcall	.+642    	; 0x49c <SSD_INITIAL>
 21a:	b8 9a       	sbi	0x17, 0	; 23
 21c:	c0 98       	cbi	0x18, 0	; 24
 21e:	bd 9a       	sbi	0x17, 5	; 23
 220:	bc 9a       	sbi	0x17, 4	; 23
 222:	10 92 63 00 	sts	0x0063, r1	; 0x800063 <Curr_state>
 226:	80 e0       	ldi	r24, 0x00	; 0
 228:	90 e0       	ldi	r25, 0x00	; 0
 22a:	33 d1       	rcall	.+614    	; 0x492 <EEPROM_READ>
 22c:	8f 3f       	cpi	r24, 0xFF	; 255
 22e:	61 f4       	brne	.+24     	; 0x248 <SYS_INITIAL+0x34>
 230:	82 e3       	ldi	r24, 0x32	; 50
 232:	90 e0       	ldi	r25, 0x00	; 0
 234:	90 93 65 00 	sts	0x0065, r25	; 0x800065 <desired_temp+0x1>
 238:	80 93 64 00 	sts	0x0064, r24	; 0x800064 <desired_temp>
 23c:	44 d1       	rcall	.+648    	; 0x4c6 <TEMP_INITIAL>
 23e:	60 91 64 00 	lds	r22, 0x0064	; 0x800064 <desired_temp>
 242:	80 e0       	ldi	r24, 0x00	; 0
 244:	90 e0       	ldi	r25, 0x00	; 0
 246:	05 c0       	rjmp	.+10     	; 0x252 <EEPROM_WRITE>
 248:	80 e0       	ldi	r24, 0x00	; 0
 24a:	90 e0       	ldi	r25, 0x00	; 0
 24c:	22 d1       	rcall	.+580    	; 0x492 <EEPROM_READ>
 24e:	90 e0       	ldi	r25, 0x00	; 0
 250:	f1 cf       	rjmp	.-30     	; 0x234 <SYS_INITIAL+0x20>

Disassembly of section .text.avrlibc.fplib:

0000041c <__fixunssfsi>:
 41c:	26 d1       	rcall	.+588    	; 0x66a <__fp_splitA>
 41e:	88 f0       	brcs	.+34     	; 0x442 <__fixunssfsi+0x26>
 420:	9f 57       	subi	r25, 0x7F	; 127
 422:	90 f0       	brcs	.+36     	; 0x448 <__fixunssfsi+0x2c>
 424:	b9 2f       	mov	r27, r25
 426:	99 27       	eor	r25, r25
 428:	b7 51       	subi	r27, 0x17	; 23
 42a:	a0 f0       	brcs	.+40     	; 0x454 <__fixunssfsi+0x38>
 42c:	d1 f0       	breq	.+52     	; 0x462 <__fixunssfsi+0x46>
 42e:	66 0f       	add	r22, r22
 430:	77 1f       	adc	r23, r23
 432:	88 1f       	adc	r24, r24
 434:	99 1f       	adc	r25, r25
 436:	1a f0       	brmi	.+6      	; 0x43e <__fixunssfsi+0x22>
 438:	ba 95       	dec	r27
 43a:	c9 f7       	brne	.-14     	; 0x42e <__fixunssfsi+0x12>
 43c:	12 c0       	rjmp	.+36     	; 0x462 <__fixunssfsi+0x46>
 43e:	b1 30       	cpi	r27, 0x01	; 1
 440:	81 f0       	breq	.+32     	; 0x462 <__fixunssfsi+0x46>
 442:	04 d1       	rcall	.+520    	; 0x64c <__fp_zero>
 444:	b1 e0       	ldi	r27, 0x01	; 1
 446:	08 95       	ret
 448:	01 c1       	rjmp	.+514    	; 0x64c <__fp_zero>
 44a:	67 2f       	mov	r22, r23
 44c:	78 2f       	mov	r23, r24
 44e:	88 27       	eor	r24, r24
 450:	b8 5f       	subi	r27, 0xF8	; 248
 452:	39 f0       	breq	.+14     	; 0x462 <__fixunssfsi+0x46>
 454:	b9 3f       	cpi	r27, 0xF9	; 249
 456:	cc f3       	brlt	.-14     	; 0x44a <__fixunssfsi+0x2e>
 458:	86 95       	lsr	r24
 45a:	77 95       	ror	r23
 45c:	67 95       	ror	r22
 45e:	b3 95       	inc	r27
 460:	d9 f7       	brne	.-10     	; 0x458 <__fixunssfsi+0x3c>
 462:	3e f4       	brtc	.+14     	; 0x472 <__fixunssfsi+0x56>
 464:	90 95       	com	r25
 466:	80 95       	com	r24
 468:	70 95       	com	r23
 46a:	61 95       	neg	r22
 46c:	7f 4f       	sbci	r23, 0xFF	; 255
 46e:	8f 4f       	sbci	r24, 0xFF	; 255
 470:	9f 4f       	sbci	r25, 0xFF	; 255
 472:	08 95       	ret

Disassembly of section .text.avrlibc.fplib:

0000039e <__floatunsisf>:
 39e:	e8 94       	clt
 3a0:	09 c0       	rjmp	.+18     	; 0x3b4 <__floatsisf+0x12>

000003a2 <__floatsisf>:
 3a2:	97 fb       	bst	r25, 7
 3a4:	3e f4       	brtc	.+14     	; 0x3b4 <__floatsisf+0x12>
 3a6:	90 95       	com	r25
 3a8:	80 95       	com	r24
 3aa:	70 95       	com	r23
 3ac:	61 95       	neg	r22
 3ae:	7f 4f       	sbci	r23, 0xFF	; 255
 3b0:	8f 4f       	sbci	r24, 0xFF	; 255
 3b2:	9f 4f       	sbci	r25, 0xFF	; 255
 3b4:	99 23       	and	r25, r25
 3b6:	a9 f0       	breq	.+42     	; 0x3e2 <__floatsisf+0x40>
 3b8:	f9 2f       	mov	r31, r25
 3ba:	96 e9       	ldi	r25, 0x96	; 150
 3bc:	bb 27       	eor	r27, r27
 3be:	93 95       	inc	r25
 3c0:	f6 95       	lsr	r31
 3c2:	87 95       	ror	r24
 3c4:	77 95       	ror	r23
 3c6:	67 95       	ror	r22
 3c8:	b7 95       	ror	r27
 3ca:	f1 11       	cpse	r31, r1
 3cc:	f8 cf       	rjmp	.-16     	; 0x3be <__floatsisf+0x1c>
 3ce:	fa f4       	brpl	.+62     	; 0x40e <__EEPROM_REGION_LENGTH__+0xe>
 3d0:	bb 0f       	add	r27, r27
 3d2:	11 f4       	brne	.+4      	; 0x3d8 <__floatsisf+0x36>
 3d4:	60 ff       	sbrs	r22, 0
 3d6:	1b c0       	rjmp	.+54     	; 0x40e <__EEPROM_REGION_LENGTH__+0xe>
 3d8:	6f 5f       	subi	r22, 0xFF	; 255
 3da:	7f 4f       	sbci	r23, 0xFF	; 255
 3dc:	8f 4f       	sbci	r24, 0xFF	; 255
 3de:	9f 4f       	sbci	r25, 0xFF	; 255
 3e0:	16 c0       	rjmp	.+44     	; 0x40e <__EEPROM_REGION_LENGTH__+0xe>
 3e2:	88 23       	and	r24, r24
 3e4:	11 f0       	breq	.+4      	; 0x3ea <__floatsisf+0x48>
 3e6:	96 e9       	ldi	r25, 0x96	; 150
 3e8:	11 c0       	rjmp	.+34     	; 0x40c <__EEPROM_REGION_LENGTH__+0xc>
 3ea:	77 23       	and	r23, r23
 3ec:	21 f0       	breq	.+8      	; 0x3f6 <__floatsisf+0x54>
 3ee:	9e e8       	ldi	r25, 0x8E	; 142
 3f0:	87 2f       	mov	r24, r23
 3f2:	76 2f       	mov	r23, r22
 3f4:	05 c0       	rjmp	.+10     	; 0x400 <__EEPROM_REGION_LENGTH__>
 3f6:	66 23       	and	r22, r22
 3f8:	71 f0       	breq	.+28     	; 0x416 <__EEPROM_REGION_LENGTH__+0x16>
 3fa:	96 e8       	ldi	r25, 0x86	; 134
 3fc:	86 2f       	mov	r24, r22
 3fe:	70 e0       	ldi	r23, 0x00	; 0
 400:	60 e0       	ldi	r22, 0x00	; 0
 402:	2a f0       	brmi	.+10     	; 0x40e <__EEPROM_REGION_LENGTH__+0xe>
 404:	9a 95       	dec	r25
 406:	66 0f       	add	r22, r22
 408:	77 1f       	adc	r23, r23
 40a:	88 1f       	adc	r24, r24
 40c:	da f7       	brpl	.-10     	; 0x404 <__EEPROM_REGION_LENGTH__+0x4>
 40e:	88 0f       	add	r24, r24
 410:	96 95       	lsr	r25
 412:	87 95       	ror	r24
 414:	97 f9       	bld	r25, 7
 416:	08 95       	ret

Disassembly of section .text.avrlibc.fplib:

0000065a <__fp_split3>:
 65a:	57 fd       	sbrc	r21, 7
 65c:	90 58       	subi	r25, 0x80	; 128
 65e:	44 0f       	add	r20, r20
 660:	55 1f       	adc	r21, r21
 662:	59 f0       	breq	.+22     	; 0x67a <__fp_splitA+0x10>
 664:	5f 3f       	cpi	r21, 0xFF	; 255
 666:	71 f0       	breq	.+28     	; 0x684 <__fp_splitA+0x1a>
 668:	47 95       	ror	r20

0000066a <__fp_splitA>:
 66a:	88 0f       	add	r24, r24
 66c:	97 fb       	bst	r25, 7
 66e:	99 1f       	adc	r25, r25
 670:	61 f0       	breq	.+24     	; 0x68a <__fp_splitA+0x20>
 672:	9f 3f       	cpi	r25, 0xFF	; 255
 674:	79 f0       	breq	.+30     	; 0x694 <__fp_splitA+0x2a>
 676:	87 95       	ror	r24
 678:	08 95       	ret
 67a:	12 16       	cp	r1, r18
 67c:	13 06       	cpc	r1, r19
 67e:	14 06       	cpc	r1, r20
 680:	55 1f       	adc	r21, r21
 682:	f2 cf       	rjmp	.-28     	; 0x668 <__fp_split3+0xe>
 684:	46 95       	lsr	r20
 686:	f1 df       	rcall	.-30     	; 0x66a <__fp_splitA>
 688:	08 c0       	rjmp	.+16     	; 0x69a <__fp_splitA+0x30>
 68a:	16 16       	cp	r1, r22
 68c:	17 06       	cpc	r1, r23
 68e:	18 06       	cpc	r1, r24
 690:	99 1f       	adc	r25, r25
 692:	f1 cf       	rjmp	.-30     	; 0x676 <__fp_splitA+0xc>
 694:	86 95       	lsr	r24
 696:	71 05       	cpc	r23, r1
 698:	61 05       	cpc	r22, r1
 69a:	08 94       	sec
 69c:	08 95       	ret

Disassembly of section .text.avrlibc.fplib:

0000064c <__fp_zero>:
 64c:	e8 94       	clt

0000064e <__fp_szero>:
 64e:	bb 27       	eor	r27, r27
 650:	66 27       	eor	r22, r22
 652:	77 27       	eor	r23, r23
 654:	cb 01       	movw	r24, r22
 656:	97 f9       	bld	r25, 7
 658:	08 95       	ret

Disassembly of section .text.avrlibc.fplib:

00000418 <__mulsf3>:
 418:	b7 d0       	rcall	.+366    	; 0x588 <__mulsf3x>
 41a:	a5 c0       	rjmp	.+330    	; 0x566 <__fp_round>

Disassembly of section .text.avrlibc.fplib:

00000588 <__mulsf3x>:
 588:	0a c0       	rjmp	.+20     	; 0x59e <__mulsf3x+0x16>
 58a:	ad d0       	rcall	.+346    	; 0x6e6 <__fp_pscA>
 58c:	28 f0       	brcs	.+10     	; 0x598 <__mulsf3x+0x10>
 58e:	a4 d0       	rcall	.+328    	; 0x6d8 <__fp_pscB>
 590:	18 f0       	brcs	.+6      	; 0x598 <__mulsf3x+0x10>
 592:	95 23       	and	r25, r21
 594:	09 f0       	breq	.+2      	; 0x598 <__mulsf3x+0x10>
 596:	97 c0       	rjmp	.+302    	; 0x6c6 <__fp_inf>
 598:	9c c0       	rjmp	.+312    	; 0x6d2 <__fp_nan>
 59a:	11 24       	eor	r1, r1
 59c:	58 c0       	rjmp	.+176    	; 0x64e <__fp_szero>
 59e:	5d d0       	rcall	.+186    	; 0x65a <__fp_split3>
 5a0:	a0 f3       	brcs	.-24     	; 0x58a <__mulsf3x+0x2>

000005a2 <__mulsf3_pse>:
 5a2:	95 9f       	mul	r25, r21
 5a4:	d1 f3       	breq	.-12     	; 0x59a <__mulsf3x+0x12>
 5a6:	95 0f       	add	r25, r21
 5a8:	50 e0       	ldi	r21, 0x00	; 0
 5aa:	55 1f       	adc	r21, r21
 5ac:	62 9f       	mul	r22, r18
 5ae:	f0 01       	movw	r30, r0
 5b0:	72 9f       	mul	r23, r18
 5b2:	bb 27       	eor	r27, r27
 5b4:	f0 0d       	add	r31, r0
 5b6:	b1 1d       	adc	r27, r1
 5b8:	63 9f       	mul	r22, r19
 5ba:	aa 27       	eor	r26, r26
 5bc:	f0 0d       	add	r31, r0
 5be:	b1 1d       	adc	r27, r1
 5c0:	aa 1f       	adc	r26, r26
 5c2:	64 9f       	mul	r22, r20
 5c4:	66 27       	eor	r22, r22
 5c6:	b0 0d       	add	r27, r0
 5c8:	a1 1d       	adc	r26, r1
 5ca:	66 1f       	adc	r22, r22
 5cc:	82 9f       	mul	r24, r18
 5ce:	22 27       	eor	r18, r18
 5d0:	b0 0d       	add	r27, r0
 5d2:	a1 1d       	adc	r26, r1
 5d4:	62 1f       	adc	r22, r18
 5d6:	73 9f       	mul	r23, r19
 5d8:	b0 0d       	add	r27, r0
 5da:	a1 1d       	adc	r26, r1
 5dc:	62 1f       	adc	r22, r18
 5de:	83 9f       	mul	r24, r19
 5e0:	a0 0d       	add	r26, r0
 5e2:	61 1d       	adc	r22, r1
 5e4:	22 1f       	adc	r18, r18
 5e6:	74 9f       	mul	r23, r20
 5e8:	33 27       	eor	r19, r19
 5ea:	a0 0d       	add	r26, r0
 5ec:	61 1d       	adc	r22, r1
 5ee:	23 1f       	adc	r18, r19
 5f0:	84 9f       	mul	r24, r20
 5f2:	60 0d       	add	r22, r0
 5f4:	21 1d       	adc	r18, r1
 5f6:	82 2f       	mov	r24, r18
 5f8:	76 2f       	mov	r23, r22
 5fa:	6a 2f       	mov	r22, r26
 5fc:	11 24       	eor	r1, r1
 5fe:	9f 57       	subi	r25, 0x7F	; 127
 600:	50 40       	sbci	r21, 0x00	; 0
 602:	8a f0       	brmi	.+34     	; 0x626 <__mulsf3_pse+0x84>
 604:	e1 f0       	breq	.+56     	; 0x63e <__mulsf3_pse+0x9c>
 606:	88 23       	and	r24, r24
 608:	4a f0       	brmi	.+18     	; 0x61c <__mulsf3_pse+0x7a>
 60a:	ee 0f       	add	r30, r30
 60c:	ff 1f       	adc	r31, r31
 60e:	bb 1f       	adc	r27, r27
 610:	66 1f       	adc	r22, r22
 612:	77 1f       	adc	r23, r23
 614:	88 1f       	adc	r24, r24
 616:	91 50       	subi	r25, 0x01	; 1
 618:	50 40       	sbci	r21, 0x00	; 0
 61a:	a9 f7       	brne	.-22     	; 0x606 <__mulsf3_pse+0x64>
 61c:	9e 3f       	cpi	r25, 0xFE	; 254
 61e:	51 05       	cpc	r21, r1
 620:	70 f0       	brcs	.+28     	; 0x63e <__mulsf3_pse+0x9c>
 622:	51 c0       	rjmp	.+162    	; 0x6c6 <__fp_inf>
 624:	14 c0       	rjmp	.+40     	; 0x64e <__fp_szero>
 626:	5f 3f       	cpi	r21, 0xFF	; 255
 628:	ec f3       	brlt	.-6      	; 0x624 <__mulsf3_pse+0x82>
 62a:	98 3e       	cpi	r25, 0xE8	; 232
 62c:	dc f3       	brlt	.-10     	; 0x624 <__mulsf3_pse+0x82>
 62e:	86 95       	lsr	r24
 630:	77 95       	ror	r23
 632:	67 95       	ror	r22
 634:	b7 95       	ror	r27
 636:	f7 95       	ror	r31
 638:	e7 95       	ror	r30
 63a:	9f 5f       	subi	r25, 0xFF	; 255
 63c:	c1 f7       	brne	.-16     	; 0x62e <__mulsf3_pse+0x8c>
 63e:	fe 2b       	or	r31, r30
 640:	88 0f       	add	r24, r24
 642:	91 1d       	adc	r25, r1
 644:	96 95       	lsr	r25
 646:	87 95       	ror	r24
 648:	97 f9       	bld	r25, 7
 64a:	08 95       	ret

Disassembly of section .text.avrlibc.fplib:

000006c6 <__fp_inf>:
 6c6:	97 f9       	bld	r25, 7
 6c8:	9f 67       	ori	r25, 0x7F	; 127
 6ca:	80 e8       	ldi	r24, 0x80	; 128
 6cc:	70 e0       	ldi	r23, 0x00	; 0
 6ce:	60 e0       	ldi	r22, 0x00	; 0
 6d0:	08 95       	ret

Disassembly of section .text.avrlibc.fplib:

000006d2 <__fp_nan>:
 6d2:	9f ef       	ldi	r25, 0xFF	; 255
 6d4:	80 ec       	ldi	r24, 0xC0	; 192
 6d6:	08 95       	ret

Disassembly of section .text.avrlibc.fplib:

000006e6 <__fp_pscA>:
 6e6:	00 24       	eor	r0, r0
 6e8:	0a 94       	dec	r0
 6ea:	16 16       	cp	r1, r22
 6ec:	17 06       	cpc	r1, r23
 6ee:	18 06       	cpc	r1, r24
 6f0:	09 06       	cpc	r0, r25
 6f2:	08 95       	ret

Disassembly of section .text.avrlibc.fplib:

000006d8 <__fp_pscB>:
 6d8:	00 24       	eor	r0, r0
 6da:	0a 94       	dec	r0
 6dc:	12 16       	cp	r1, r18
 6de:	13 06       	cpc	r1, r19
 6e0:	14 06       	cpc	r1, r20
 6e2:	05 06       	cpc	r0, r21
 6e4:	08 95       	ret

Disassembly of section .text.avrlibc.fplib:

00000566 <__fp_round>:
 566:	09 2e       	mov	r0, r25
 568:	03 94       	inc	r0
 56a:	00 0c       	add	r0, r0
 56c:	11 f4       	brne	.+4      	; 0x572 <__fp_round+0xc>
 56e:	88 23       	and	r24, r24
 570:	52 f0       	brmi	.+20     	; 0x586 <__fp_round+0x20>
 572:	bb 0f       	add	r27, r27
 574:	40 f4       	brcc	.+16     	; 0x586 <__fp_round+0x20>
 576:	bf 2b       	or	r27, r31
 578:	11 f4       	brne	.+4      	; 0x57e <__fp_round+0x18>
 57a:	60 ff       	sbrs	r22, 0
 57c:	04 c0       	rjmp	.+8      	; 0x586 <__fp_round+0x20>
 57e:	6f 5f       	subi	r22, 0xFF	; 255
 580:	7f 4f       	sbci	r23, 0xFF	; 255
 582:	8f 4f       	sbci	r24, 0xFF	; 255
 584:	9f 4f       	sbci	r25, 0xFF	; 255
 586:	08 95       	ret

Disassembly of section .text.libgcc.div:

0000053a <__divmodhi4>:
 53a:	97 fb       	bst	r25, 7
 53c:	07 2e       	mov	r0, r23
 53e:	16 f4       	brtc	.+4      	; 0x544 <__divmodhi4+0xa>
 540:	00 94       	com	r0
 542:	06 d0       	rcall	.+12     	; 0x550 <__divmodhi4_neg1>
 544:	77 fd       	sbrc	r23, 7
 546:	08 d0       	rcall	.+16     	; 0x558 <__divmodhi4_neg2>
 548:	aa d0       	rcall	.+340    	; 0x69e <__udivmodhi4>
 54a:	07 fc       	sbrc	r0, 7
 54c:	05 d0       	rcall	.+10     	; 0x558 <__divmodhi4_neg2>
 54e:	3e f4       	brtc	.+14     	; 0x55e <__divmodhi4_exit>

00000550 <__divmodhi4_neg1>:
 550:	90 95       	com	r25
 552:	81 95       	neg	r24
 554:	9f 4f       	sbci	r25, 0xFF	; 255
 556:	08 95       	ret

00000558 <__divmodhi4_neg2>:
 558:	70 95       	com	r23
 55a:	61 95       	neg	r22
 55c:	7f 4f       	sbci	r23, 0xFF	; 255

0000055e <__divmodhi4_exit>:
 55e:	08 95       	ret

Disassembly of section .text.libgcc.mul:

00000474 <__umulhisi3>:
 474:	a2 9f       	mul	r26, r18
 476:	b0 01       	movw	r22, r0
 478:	b3 9f       	mul	r27, r19
 47a:	c0 01       	movw	r24, r0
 47c:	a3 9f       	mul	r26, r19
 47e:	70 0d       	add	r23, r0
 480:	81 1d       	adc	r24, r1
 482:	11 24       	eor	r1, r1
 484:	91 1d       	adc	r25, r1
 486:	b2 9f       	mul	r27, r18
 488:	70 0d       	add	r23, r0
 48a:	81 1d       	adc	r24, r1
 48c:	11 24       	eor	r1, r1
 48e:	91 1d       	adc	r25, r1
 490:	08 95       	ret

Disassembly of section .text.libgcc.div:

0000069e <__udivmodhi4>:
 69e:	aa 1b       	sub	r26, r26
 6a0:	bb 1b       	sub	r27, r27
 6a2:	51 e1       	ldi	r21, 0x11	; 17
 6a4:	07 c0       	rjmp	.+14     	; 0x6b4 <__udivmodhi4_ep>

000006a6 <__udivmodhi4_loop>:
 6a6:	aa 1f       	adc	r26, r26
 6a8:	bb 1f       	adc	r27, r27
 6aa:	a6 17       	cp	r26, r22
 6ac:	b7 07       	cpc	r27, r23
 6ae:	10 f0       	brcs	.+4      	; 0x6b4 <__udivmodhi4_ep>
 6b0:	a6 1b       	sub	r26, r22
 6b2:	b7 0b       	sbc	r27, r23

000006b4 <__udivmodhi4_ep>:
 6b4:	88 1f       	adc	r24, r24
 6b6:	99 1f       	adc	r25, r25
 6b8:	5a 95       	dec	r21
 6ba:	a9 f7       	brne	.-22     	; 0x6a6 <__udivmodhi4_loop>
 6bc:	80 95       	com	r24
 6be:	90 95       	com	r25
 6c0:	bc 01       	movw	r22, r24
 6c2:	cd 01       	movw	r24, r26
 6c4:	08 95       	ret
